target datalayout = "e-m:e-p270:32:32-p271:32:32-p272:64:64-i64:64-i128:128-f80:128-n8:16:32:64-S128"
target triple = "x86_64-pc-linux-gnu"

%struct.ZDICT_cover_params_t = type { i32, i32, i32, i32, double, i32, i32, %struct.ZDICT_params_t }
%struct.ZDICT_params_t = type { i32, i32, i32 }
%struct.COVER_best_s = type { %union.pthread_mutex_t, %union.pthread_cond_t, i64, ptr, i64, %struct.ZDICT_cover_params_t, i64 }
%union.pthread_mutex_t = type { %struct.__pthread_mutex_s }
%struct.__pthread_mutex_s = type { i32, i32, i32, i32, i32, i16, i16, %struct.__pthread_internal_list }
%struct.__pthread_internal_list = type { ptr, ptr }
%union.pthread_cond_t = type { %struct.__pthread_cond_s }
%struct.__pthread_cond_s = type { %union.__atomic_wide_counter, %union.__atomic_wide_counter, [2 x i32], [2 x i32], i32, i32, [2 x i32] }
%union.__atomic_wide_counter = type { i64 }

; Function Attrs: nounwind uwtable
define void @COVER_best_init(ptr noundef %0) #0 {
  %2 = alloca ptr, align 8
  store ptr %0, ptr %2, align 8, !tbaa !65
  %3 = load ptr, ptr %2, align 8, !tbaa !65
  %4 = icmp eq ptr %3, null
  br i1 %4, label %5, label %6

5:                                                ; preds = %1
  br label %23

6:                                                ; preds = %1
  %7 = load ptr, ptr %2, align 8, !tbaa !65
  %8 = getelementptr inbounds nuw %struct.COVER_best_s, ptr %7, i32 0, i32 0
  %9 = call i32 @pthread_mutex_init(ptr noundef %8, ptr noundef null) #10
  %10 = load ptr, ptr %2, align 8, !tbaa !65
  %11 = getelementptr inbounds nuw %struct.COVER_best_s, ptr %10, i32 0, i32 1
  %12 = call i32 @pthread_cond_init(ptr noundef %11, ptr noundef null) #10
  %13 = load ptr, ptr %2, align 8, !tbaa !65
  %14 = getelementptr inbounds nuw %struct.COVER_best_s, ptr %13, i32 0, i32 2
  store i64 0, ptr %14, align 8, !tbaa !67
  %15 = load ptr, ptr %2, align 8, !tbaa !65
  %16 = getelementptr inbounds nuw %struct.COVER_best_s, ptr %15, i32 0, i32 3
  store ptr null, ptr %16, align 8, !tbaa !69
  %17 = load ptr, ptr %2, align 8, !tbaa !65
  %18 = getelementptr inbounds nuw %struct.COVER_best_s, ptr %17, i32 0, i32 4
  store i64 0, ptr %18, align 8, !tbaa !70
  %19 = load ptr, ptr %2, align 8, !tbaa !65
  %20 = getelementptr inbounds nuw %struct.COVER_best_s, ptr %19, i32 0, i32 6
  store i64 -1, ptr %20, align 8, !tbaa !71
  %21 = load ptr, ptr %2, align 8, !tbaa !65
  %22 = getelementptr inbounds nuw %struct.COVER_best_s, ptr %21, i32 0, i32 5
  call void @llvm.memset.p0.i64(ptr align 8 %22, i8 0, i64 48, i1 false)
  br label %23

23:                                               ; preds = %6, %5
  ret void
}