; Function Attrs: nounwind uwtable
define void @COVER_best_init(ptr noundef %0) local_unnamed_addr #5 {
  %2 = icmp eq ptr %0, null
  br i1 %2, label %10, label %3

3:                                                ; preds = %1
  %4 = tail call i32 @pthread_mutex_init(ptr noundef nonnull %0, ptr noundef null) #22
  %5 = getelementptr inbounds nuw i8, ptr %0, i64 40
  %6 = tail call i32 @pthread_cond_init(ptr noundef nonnull %5, ptr noundef null) #22
  %7 = getelementptr inbounds nuw i8, ptr %0, i64 88
  %8 = getelementptr inbounds nuw i8, ptr %0, i64 160
  tail call void @llvm.memset.p0.i64(ptr noundef nonnull align 8 dereferenceable(24) %7, i8 0, i64 24, i1 false)
  store i64 -1, ptr %8, align 8, !tbaa !58
  %9 = getelementptr inbounds nuw i8, ptr %0, i64 112
  tail call void @llvm.memset.p0.i64(ptr noundef nonnull align 8 dereferenceable(48) %9, i8 0, i64 48, i1 false)
  br label %10

10:                                               ; preds = %1, %3
  ret void
}